target datalayout = "e-m:e-p270:32:32-p271:32:32-p272:64:64-i64:64-i128:128-f80:128-n8:16:32:64-S128"
target triple = "x86_64-unknown-linux-gnu"

; Function Attrs: nounwind uwtable
define i32 @stb__clex_parse_char(ptr noundef %p, ptr noundef %q) #0 {
entry:
  %retval = alloca i32, align 4
  %p.addr = alloca ptr, align 8
  %q.addr = alloca ptr, align 8
  store ptr %p, ptr %p.addr, align 8
  store ptr %q, ptr %q.addr, align 8
  %0 = load ptr, ptr %p.addr, align 8
  %1 = load i8, ptr %0, align 1
  %conv = sext i8 %1 to i32
  %cmp = icmp eq i32 %conv, 92
  br i1 %cmp, label %if.then, label %if.end

if.then:                                          ; preds = %entry
  %2 = load ptr, ptr %p.addr, align 8
  %add.ptr = getelementptr inbounds i8, ptr %2, i64 2
  %3 = load ptr, ptr %q.addr, align 8
  store ptr %add.ptr, ptr %3, align 8
  %4 = load ptr, ptr %p.addr, align 8
  %arrayidx = getelementptr inbounds i8, ptr %4, i64 1
  %5 = load i8, ptr %arrayidx, align 1
  %conv2 = sext i8 %5 to i32
  switch i32 %conv2, label %sw.epilog [
    i32 92, label %sw.bb
    i32 39, label %sw.bb3
    i32 34, label %sw.bb4
    i32 116, label %sw.bb5
    i32 102, label %sw.bb6
    i32 110, label %sw.bb7
    i32 114, label %sw.bb8
    i32 48, label %sw.bb9
    i32 120, label %sw.bb10
    i32 88, label %sw.bb10
    i32 117, label %sw.bb11
  ]

sw.bb:                                            ; preds = %if.then
  store i32 92, ptr %retval, align 4
  br label %return

sw.bb3:                                           ; preds = %if.then
  store i32 39, ptr %retval, align 4
  br label %return

sw.bb4:                                           ; preds = %if.then
  store i32 34, ptr %retval, align 4
  br label %return

sw.bb5:                                           ; preds = %if.then
  store i32 9, ptr %retval, align 4
  br label %return

sw.bb6:                                           ; preds = %if.then
  store i32 12, ptr %retval, align 4
  br label %return

sw.bb7:                                           ; preds = %if.then
  store i32 10, ptr %retval, align 4
  br label %return

sw.bb8:                                           ; preds = %if.then
  store i32 13, ptr %retval, align 4
  br label %return

sw.bb9:                                           ; preds = %if.then
  store i32 0, ptr %retval, align 4
  br label %return

sw.bb10:                                          ; preds = %if.then, %if.then
  store i32 -1, ptr %retval, align 4
  br label %return

sw.bb11:                                          ; preds = %if.then
  store i32 -1, ptr %retval, align 4
  br label %return

sw.epilog:                                        ; preds = %if.then
  br label %if.end

if.end:                                           ; preds = %sw.epilog, %entry
  %6 = load ptr, ptr %p.addr, align 8
  %add.ptr12 = getelementptr inbounds i8, ptr %6, i64 1
  %7 = load ptr, ptr %q.addr, align 8
  store ptr %add.ptr12, ptr %7, align 8
  %8 = load ptr, ptr %p.addr, align 8
  %9 = load i8, ptr %8, align 1
  %conv13 = zext i8 %9 to i32
  store i32 %conv13, ptr %retval, align 4
  br label %return

return:                                           ; preds = %if.end, %sw.bb11, %sw.bb10, %sw.bb9, %sw.bb8, %sw.bb7, %sw.bb6, %sw.bb5, %sw.bb4, %sw.bb3, %sw.bb
  %10 = load i32, ptr %retval, align 4
  ret i32 %10
}