; Function Attrs: mustprogress nofree norecurse nosync nounwind willreturn memory(argmem: readwrite) uwtable
define range(i32 -1, 256) i32 @stb__clex_parse_char(ptr noundef %p, ptr noundef writeonly captures(none) initializes((0, 8)) %q) local_unnamed_addr #4 {
entry:
  %0 = load i8, ptr %p, align 1
  %cmp = icmp eq i8 %0, 92
  br i1 %cmp, label %if.then, label %if.end

if.then:                                          ; preds = %entry
  %add.ptr = getelementptr inbounds nuw i8, ptr %p, i64 2
  store ptr %add.ptr, ptr %q, align 8
  %arrayidx = getelementptr inbounds nuw i8, ptr %p, i64 1
  %1 = load i8, ptr %arrayidx, align 1
  switch i8 %1, label %if.end [
    i8 92, label %return
    i8 39, label %sw.bb3
    i8 34, label %sw.bb4
    i8 116, label %sw.bb5
    i8 102, label %sw.bb6
    i8 110, label %sw.bb7
    i8 114, label %sw.bb8
    i8 48, label %sw.bb9
    i8 120, label %sw.bb10
    i8 88, label %sw.bb10
    i8 117, label %sw.bb10
  ]

sw.bb3:                                           ; preds = %if.then
  br label %return

sw.bb4:                                           ; preds = %if.then
  br label %return

sw.bb5:                                           ; preds = %if.then
  br label %return

sw.bb6:                                           ; preds = %if.then
  br label %return

sw.bb7:                                           ; preds = %if.then
  br label %return

sw.bb8:                                           ; preds = %if.then
  br label %return

sw.bb9:                                           ; preds = %if.then
  br label %return

sw.bb10:                                          ; preds = %if.then, %if.then, %if.then
  br label %return

if.end:                                           ; preds = %if.then, %entry
  %add.ptr12 = getelementptr inbounds nuw i8, ptr %p, i64 1
  store ptr %add.ptr12, ptr %q, align 8
  %2 = load i8, ptr %p, align 1
  %conv13 = zext i8 %2 to i32
  br label %return

return:                                           ; preds = %if.then, %if.end, %sw.bb10, %sw.bb9, %sw.bb8, %sw.bb7, %sw.bb6, %sw.bb5, %sw.bb4, %sw.bb3
  %retval.0 = phi i32 [ %conv13, %if.end ], [ -1, %sw.bb10 ], [ 0, %sw.bb9 ], [ 13, %sw.bb8 ], [ 10, %sw.bb7 ], [ 12, %sw.bb6 ], [ 9, %sw.bb5 ], [ 34, %sw.bb4 ], [ 39, %sw.bb3 ], [ 92, %if.then ]
  ret i32 %retval.0
}